; Function Attrs: nounwind uwtable
define hidden i32 @_ir_ADD_OFFSET(ptr nocapture noundef %0, i32 noundef %1, i64 noundef %2) local_unnamed_addr #0 {
  %.not = icmp eq i64 %2, 0
  br i1 %.not, label %ir_fold.exit, label %ir_const_addr.exit

ir_const_addr.exit:                               ; preds = %3
  %4 = tail call i32 @ir_const_ex(ptr noundef %0, i64 %2, i8 noundef zeroext 6, i32 noundef 1542)
  %5 = getelementptr inbounds i8, ptr %0, i64 24
  %6 = load i32, ptr %5, align 8
  %7 = and i32 %6, 131072
  %.not.i = icmp eq i32 %7, 0
  br i1 %.not.i, label %8, label %37

8:                                                ; preds = %ir_const_addr.exit
  %9 = getelementptr inbounds i8, ptr %0, i64 8
  %10 = load i32, ptr %9, align 8
  %11 = getelementptr inbounds i8, ptr %0, i64 12
  %12 = load i32, ptr %11, align 4
  %.not.i.i.i = icmp slt i32 %10, %12
  %.pre.i.i = load ptr, ptr %0, align 8
  br i1 %.not.i.i.i, label %ir_emit.exit.i, label %13

13:                                               ; preds = %8
  %14 = getelementptr inbounds i8, ptr %0, i64 20
  %15 = load i32, ptr %14, align 4
  %16 = icmp slt i32 %12, 4096
  %17 = shl nsw i32 %12, 1
  %18 = icmp ult i32 %12, 8192
  %19 = add nuw nsw i32 %12, 4096
  %spec.select.i.i.i.i = select i1 %18, i32 8192, i32 %19
  %.sink.i.i.i.i = select i1 %16, i32 %17, i32 %spec.select.i.i.i.i
  store i32 %.sink.i.i.i.i, ptr %11, align 4
  %20 = sext i32 %15 to i64
  %21 = sub nsw i64 0, %20
  %22 = getelementptr inbounds %struct._ir_insn, ptr %.pre.i.i, i64 %21
  %23 = add nsw i32 %15, %.sink.i.i.i.i
  %24 = sext i32 %23 to i64
  %25 = shl nsw i64 %24, 4
  %26 = tail call ptr @_erealloc(ptr noundef %22, i64 noundef %25) #24
  %27 = load i32, ptr %14, align 4
  %28 = sext i32 %27 to i64
  %29 = getelementptr inbounds %struct._ir_insn, ptr %26, i64 %28
  store ptr %29, ptr %0, align 8
  br label %ir_emit.exit.i

ir_emit.exit.i:                                   ; preds = %13, %8
  %30 = phi ptr [ %.pre.i.i, %8 ], [ %29, %13 ]
  %31 = add nsw i32 %10, 1
  store i32 %31, ptr %9, align 8
  %32 = sext i32 %10 to i64
  %33 = getelementptr inbounds %struct._ir_insn, ptr %30, i64 %32
  store i32 1560, ptr %33, align 8
  %34 = getelementptr inbounds i8, ptr %33, i64 4
  store i32 %1, ptr %34, align 4
  %35 = getelementptr inbounds i8, ptr %33, i64 8
  store i32 %4, ptr %35, align 8
  %36 = getelementptr inbounds i8, ptr %33, i64 12
  store i32 0, ptr %36, align 4
  br label %ir_fold.exit

37:                                               ; preds = %ir_const_addr.exit
  %38 = load ptr, ptr %0, align 8
  %39 = sext i32 %1 to i64
  %40 = getelementptr inbounds %struct._ir_insn, ptr %38, i64 %39
  %41 = sext i32 %4 to i64
  %42 = getelementptr inbounds %struct._ir_insn, ptr %38, i64 %41
  %43 = tail call i32 @ir_folding(ptr noundef nonnull %0, i32 noundef 1560, i32 noundef %1, i32 noundef %4, i32 noundef 0, ptr noundef %40, ptr noundef %42, ptr poison)
  br label %ir_fold.exit

ir_fold.exit:                                     ; preds = %37, %ir_emit.exit.i, %3
  %.0 = phi i32 [ %1, %3 ], [ %10, %ir_emit.exit.i ], [ %43, %37 ]
  ret i32 %.0
}